(dp0
Vengine
p1
Vxelatex
p2
sVpackages
p3
c__builtin__
set
p4
((lp5
Vkotex
p6
aVamsmath
p7
aVamsfonts
p8
aVamssymb
p9
atp10
Rp11
sVfiles_with_guttermarks
p12
g4
((lp13
S'000.ErrorInText.tex'
p14
aV/usr/local/texlive/2016/texmf-dist/tex/latex/amsmath/amstex.sty
p15
aV/Users/j/Documents/lecture/_latest_resources/MicroEconomics/_keynote/./000.ErrorInText.tex
p16
atp17
Rp18
sVsynctex
p19
I01
s.